target datalayout = "e-m:e-p270:32:32-p271:32:32-p272:64:64-i64:64-i128:128-f80:128-n8:16:32:64-S128"
target triple = "x86_64-pc-linux-gnu"

%struct._object = type { %union.anon, ptr }
%union.anon = type { i64 }
%struct._longobject = type { %struct._object, %struct._PyLongValue }
%struct._PyLongValue = type { i64, [1 x i32] }

; Function Attrs: inlinehint nounwind uwtable
define internal i64 @_PyLong_CompactValue(ptr noundef %0) #2 {
  %2 = alloca ptr, align 8
  %3 = alloca i64, align 8
  store ptr %0, ptr %2, align 8, !tbaa !152
  call void @llvm.lifetime.start.p0(i64 8, ptr %3) #7
  %4 = load ptr, ptr %2, align 8, !tbaa !152
  %5 = getelementptr inbounds nuw %struct._longobject, ptr %4, i32 0, i32 1
  %6 = getelementptr inbounds nuw %struct._PyLongValue, ptr %5, i32 0, i32 0
  %7 = load i64, ptr %6, align 8, !tbaa !154
  %8 = and i64 %7, 3
  %9 = sub i64 1, %8
  store i64 %9, ptr %3, align 8, !tbaa !8
  %10 = load i64, ptr %3, align 8, !tbaa !8
  %11 = load ptr, ptr %2, align 8, !tbaa !152
  %12 = getelementptr inbounds nuw %struct._longobject, ptr %11, i32 0, i32 1
  %13 = getelementptr inbounds nuw %struct._PyLongValue, ptr %12, i32 0, i32 1
  %14 = getelementptr [1 x i32], ptr %13, i64 0, i64 0
  %15 = load i32, ptr %14, align 8, !tbaa !10
  %16 = zext i32 %15 to i64
  %17 = mul i64 %10, %16
  call void @llvm.lifetime.end.p0(i64 8, ptr %3) #7
  ret i64 %17
}

; Function Attrs: nounwind uwtable
define internal ptr @float_compactlong_subtract(ptr noundef %0, ptr noundef %1) #0 {
  %3 = alloca ptr, align 8
  %4 = alloca ptr, align 8
  %5 = alloca double, align 8
  %6 = alloca i64, align 8
  store ptr %0, ptr %3, align 8, !tbaa !18
  store ptr %1, ptr %4, align 8, !tbaa !18
  call void @llvm.lifetime.start.p0(i64 8, ptr %5) #7
  %7 = load ptr, ptr %3, align 8, !tbaa !18
  %8 = call double @PyFloat_AsDouble(ptr noundef %7)
  store double %8, ptr %5, align 8, !tbaa !208
  call void @llvm.lifetime.start.p0(i64 8, ptr %6) #7
  %9 = load ptr, ptr %4, align 8, !tbaa !18
  %10 = call i64 @_PyLong_CompactValue(ptr noundef %9)
  store i64 %10, ptr %6, align 8, !tbaa !8
  %11 = load double, ptr %5, align 8, !tbaa !208
  %12 = load i64, ptr %6, align 8, !tbaa !8
  %13 = sitofp i64 %12 to double
  %14 = fsub double %11, %13
  %15 = call ptr @PyFloat_FromDouble(double noundef %14)
  call void @llvm.lifetime.end.p0(i64 8, ptr %6) #7
  call void @llvm.lifetime.end.p0(i64 8, ptr %5) #7
  ret ptr %15
}